	.cpu cortex-m3
	.eabi_attribute 20, 1
	.eabi_attribute 21, 1
	.eabi_attribute 23, 3
	.eabi_attribute 24, 1
	.eabi_attribute 25, 1
	.eabi_attribute 26, 1
	.eabi_attribute 30, 6
	.eabi_attribute 34, 1
	.eabi_attribute 18, 4
	.file	"app.c"
	.text
.Ltext0:
	.global	device_status
	.section	.bss.device_status,"aw",%nobits
	.align	2
	.type	device_status, %object
	.size	device_status, 52
device_status:
	.space	52
	.global	device_error
	.section	.bss.device_error,"aw",%nobits
	.align	2
	.type	device_error, %object
	.size	device_error, 4
device_error:
	.space	4
	.section .rodata
	.align	2
.LC0:
	.ascii	"init device form falsh ...\015\012\000"
	.align	2
.LC1:
	.ascii	"flash is init ...\015\012\000"
	.align	2
.LC2:
	.ascii	"device first boot init flash ...\015\012\000"
	.section	.text.init_device_from_flash,"ax",%progbits
	.align	1
	.global	init_device_from_flash
	.syntax unified
	.thumb
	.thumb_func
	.fpu softvfp
	.type	init_device_from_flash, %function
init_device_from_flash:
.LFB63:
	.file 1 "/Users/xuqi/temp/CH_HomeRo/MDK-ARM/app.c"
	.loc 1 7 0
	@ args = 0, pretend = 0, frame = 8
	@ frame_needed = 0, uses_anonymous_args = 0
	push	{r4, lr}
.LCFI0:
	sub	sp, sp, #8
.LCFI1:
	.loc 1 8 0
	ldr	r0, .L8
	bl	printf
	.loc 1 9 0
	movs	r0, #0
	bl	flash_read
	mov	r3, r0
	strb	r3, [sp, #5]
	.loc 1 10 0
	ldrb	r3, [sp, #5]	@ zero_extendqisi2
	cmp	r3, #1
	bne	.L2
	.loc 1 11 0
	ldr	r0, .L8+4
	bl	printf
	.loc 1 13 0
	movs	r0, #1
	bl	flash_read
	mov	r3, r0
	uxtb	r2, r3
	ldr	r3, .L8+8
	strb	r2, [r3, #3]
	.loc 1 14 0
	movs	r0, #6
	bl	flash_read
	mov	r3, r0
	uxtb	r2, r3
	ldr	r3, .L8+8
	strb	r2, [r3, #1]
	.loc 1 15 0
	movs	r0, #2
	bl	flash_read
	mov	r3, r0
	uxth	r2, r3
	ldr	r3, .L8+8
	strh	r2, [r3, #6]	@ movhi
	.loc 1 16 0
	movs	r0, #3
	bl	flash_read
	mov	r3, r0
	uxth	r2, r3
	ldr	r3, .L8+8
	strh	r2, [r3, #8]	@ movhi
	.loc 1 17 0
	movs	r0, #5
	bl	flash_read
	mov	r2, r0
	ldr	r3, .L8+8
	str	r2, [r3, #16]
	.loc 1 18 0
	movs	r0, #4
	bl	flash_read
	mov	r2, r0
	ldr	r3, .L8+8
	str	r2, [r3, #12]
.LBB2:
	.loc 1 19 0
	movs	r3, #0
	strb	r3, [sp, #7]
	b	.L3
.L4:
	.loc 1 20 0 discriminator 3
	ldrb	r4, [sp, #7]	@ zero_extendqisi2
	ldrb	r3, [sp, #7]	@ zero_extendqisi2
	adds	r3, r3, #7
	mov	r0, r3
	bl	flash_read
	mov	r3, r0
	uxtb	r2, r3
	ldr	r3, .L8+8
	add	r3, r3, r4
	strb	r2, [r3, #20]
	.loc 1 19 0 discriminator 3
	ldrb	r3, [sp, #7]	@ zero_extendqisi2
	adds	r3, r3, #1
	strb	r3, [sp, #7]
.L3:
	.loc 1 19 0 is_stmt 0 discriminator 1
	ldrb	r3, [sp, #7]	@ zero_extendqisi2
	cmp	r3, #9
	bls	.L4
.LBE2:
	.loc 1 23 0 is_stmt 1
	b	.L1
.L2:
	.loc 1 25 0
	ldr	r0, .L8+12
	bl	printf
	.loc 1 26 0
	movs	r2, #200
	movs	r1, #0
	ldr	r0, .L8+16
	bl	memset
	.loc 1 27 0
	ldrb	r3, [sp, #5]	@ zero_extendqisi2
	ldr	r2, .L8+16
	movs	r1, #1
	str	r1, [r2, r3, lsl #2]
	.loc 1 28 0
	ldr	r3, .L8+16
	movw	r2, #546
	str	r2, [r3, #12]
	.loc 1 29 0
	ldr	r3, .L8+16
	movs	r2, #0
	str	r2, [r3, #4]
.LBB3:
	.loc 1 30 0
	movs	r3, #0
	strb	r3, [sp, #6]
	b	.L6
.L7:
	.loc 1 31 0 discriminator 3
	ldrb	r3, [sp, #6]	@ zero_extendqisi2
	adds	r3, r3, #7
	ldr	r2, .L8+16
	movs	r1, #100
	str	r1, [r2, r3, lsl #2]
	.loc 1 30 0 discriminator 3
	ldrb	r3, [sp, #6]	@ zero_extendqisi2
	adds	r3, r3, #1
	strb	r3, [sp, #6]
.L6:
	.loc 1 30 0 is_stmt 0 discriminator 1
	ldrb	r3, [sp, #6]	@ zero_extendqisi2
	cmp	r3, #9
	bls	.L7
.LBE3:
	.loc 1 33 0 is_stmt 1
	ldr	r0, .L8+16
	bl	flash_write
	.loc 1 34 0
	bl	init_device_from_flash
.L1:
	.loc 1 36 0
	add	sp, sp, #8
.LCFI2:
	@ sp needed
	pop	{r4, pc}
.L9:
	.align	2
.L8:
	.word	.LC0
	.word	.LC1
	.word	device_status
	.word	.LC2
	.word	flash_pages_data
.LFE63:
	.size	init_device_from_flash, .-init_device_from_flash
	.section .rodata
	.align	2
.LC3:
	.ascii	"device is registed ...\000"
	.align	2
.LC4:
	.ascii	"+NNMI\000"
	.align	2
.LC5:
	.ascii	"ERROR:registe error\000"
	.section	.text.registe_device,"ax",%progbits
	.align	1
	.global	registe_device
	.syntax unified
	.thumb
	.thumb_func
	.fpu softvfp
	.type	registe_device, %function
registe_device:
.LFB64:
	.loc 1 38 0
	@ args = 0, pretend = 0, frame = 0
	@ frame_needed = 0, uses_anonymous_args = 0
	push	{r3, lr}
.LCFI3:
	.loc 1 39 0
	ldr	r3, .L15
	ldrb	r3, [r3, #3]	@ zero_extendqisi2
	cmp	r3, #1
	bne	.L11
	.loc 1 40 0
	ldr	r0, .L15+4
	bl	printf
	.loc 1 50 0
	b	.L10
.L11:
	.loc 1 42 0
	ldr	r0, .L15+8
	bl	bc95_send_coap
	mov	r3, r0
	cmp	r3, #1
	bne	.L13
	.loc 1 43 0
	movs	r0, #2
	bl	bc95_read_coap
	.loc 1 44 0
	movs	r3, #1
	b	.L10
.L13:
	.loc 1 46 0
	ldr	r0, .L15+12
	bl	printf
	.loc 1 47 0
	movs	r3, #0
.L10:
	.loc 1 50 0
	mov	r0, r3
	pop	{r3, pc}
.L16:
	.align	2
.L15:
	.word	device_status
	.word	.LC3
	.word	.LC4
	.word	.LC5
.LFE64:
	.size	registe_device, .-registe_device
	.section	.text.HAL_TIM_PeriodElapsedCallback,"ax",%progbits
	.align	1
	.global	HAL_TIM_PeriodElapsedCallback
	.syntax unified
	.thumb
	.thumb_func
	.fpu softvfp
	.type	HAL_TIM_PeriodElapsedCallback, %function
HAL_TIM_PeriodElapsedCallback:
.LFB65:
	.loc 1 52 0
	@ args = 0, pretend = 0, frame = 8
	@ frame_needed = 0, uses_anonymous_args = 0
	push	{lr}
.LCFI4:
	sub	sp, sp, #12
.LCFI5:
	str	r0, [sp, #4]
	.loc 1 53 0
	ldr	r3, [sp, #4]
	ldr	r2, [r3]
	ldr	r3, .L20
	ldr	r3, [r3]
	cmp	r2, r3
	bne	.L19
	.loc 1 54 0
	mov	r1, #8192
	ldr	r0, .L20+4
	bl	HAL_GPIO_TogglePin
.L19:
	.loc 1 56 0
	nop
	add	sp, sp, #12
.LCFI6:
	@ sp needed
	ldr	pc, [sp], #4
.L21:
	.align	2
.L20:
	.word	htim2
	.word	1073811456
.LFE65:
	.size	HAL_TIM_PeriodElapsedCallback, .-HAL_TIM_PeriodElapsedCallback
	.section	.debug_frame,"",%progbits
.Lframe0:
	.4byte	.LECIE0-.LSCIE0
.LSCIE0:
	.4byte	0xffffffff
	.byte	0x3
	.ascii	"\000"
	.uleb128 0x1
	.sleb128 -4
	.uleb128 0xe
	.byte	0xc
	.uleb128 0xd
	.uleb128 0
	.align	2
.LECIE0:
.LSFDE0:
	.4byte	.LEFDE0-.LASFDE0
.LASFDE0:
	.4byte	.Lframe0
	.4byte	.LFB63
	.4byte	.LFE63-.LFB63
	.byte	0x4
	.4byte	.LCFI0-.LFB63
	.byte	0xe
	.uleb128 0x8
	.byte	0x84
	.uleb128 0x2
	.byte	0x8e
	.uleb128 0x1
	.byte	0x4
	.4byte	.LCFI1-.LCFI0
	.byte	0xe
	.uleb128 0x10
	.byte	0x4
	.4byte	.LCFI2-.LCFI1
	.byte	0xe
	.uleb128 0x8
	.align	2
.LEFDE0:
.LSFDE2:
	.4byte	.LEFDE2-.LASFDE2
.LASFDE2:
	.4byte	.Lframe0
	.4byte	.LFB64
	.4byte	.LFE64-.LFB64
	.byte	0x4
	.4byte	.LCFI3-.LFB64
	.byte	0xe
	.uleb128 0x8
	.byte	0x83
	.uleb128 0x2
	.byte	0x8e
	.uleb128 0x1
	.align	2
.LEFDE2:
.LSFDE4:
	.4byte	.LEFDE4-.LASFDE4
.LASFDE4:
	.4byte	.Lframe0
	.4byte	.LFB65
	.4byte	.LFE65-.LFB65
	.byte	0x4
	.4byte	.LCFI4-.LFB65
	.byte	0xe
	.uleb128 0x4
	.byte	0x8e
	.uleb128 0x1
	.byte	0x4
	.4byte	.LCFI5-.LCFI4
	.byte	0xe
	.uleb128 0x10
	.byte	0x4
	.4byte	.LCFI6-.LCFI5
	.byte	0xe
	.uleb128 0x4
	.align	2
.LEFDE4:
	.text
.Letext0:
	.file 2 "/Applications/SEGGER Embedded Studio for ARM 3.34/include/stdint.h"
	.file 3 "/Users/xuqi/Library/SEGGER/SEGGER Embedded Studio/v3/packages/CMSIS_4/CMSIS/Include/core_cm3.h"
	.file 4 "../Drivers/CMSIS/Device/ST/STM32F1xx/Include/system_stm32f1xx.h"
	.file 5 "../Drivers/CMSIS/Device/ST/STM32F1xx/Include/stm32f103xb.h"
	.file 6 "/Applications/SEGGER Embedded Studio for ARM 3.34/include/__crossworks.h"
	.file 7 "/Applications/SEGGER Embedded Studio for ARM 3.34/include/stdio.h"
	.file 8 "../Drivers/STM32F1xx_HAL_Driver/Inc/stm32f1xx_hal_def.h"
	.file 9 "../Drivers/STM32F1xx_HAL_Driver/Inc/stm32f1xx_hal_dma.h"
	.file 10 "../Drivers/STM32F1xx_HAL_Driver/Inc/stm32f1xx_hal_adc.h"
	.file 11 "../Drivers/STM32F1xx_HAL_Driver/Inc/stm32f1xx_hal_tim.h"
	.file 12 "../Drivers/STM32F1xx_HAL_Driver/Inc/stm32f1xx_hal_uart.h"
	.file 13 "../Inc/usart.h"
	.file 14 "../MDK-ARM/tools/tools.h"
	.file 15 "../MDK-ARM/bc95/bc95.h"
	.file 16 "../Inc/adc.h"
	.file 17 "/Users/xuqi/temp/CH_HomeRo/MDK-ARM/app.h"
	.file 18 "../Inc/tim.h"